target datalayout = "e-m:e-p270:32:32-p271:32:32-p272:64:64-i64:64-i128:128-f80:128-n8:16:32:64-S128"
target triple = "x86_64-pc-linux-gnu"

%class.QString = type { ptr }
%"class.vcg::Point3" = type { [3 x float] }
%class.RichParameter = type { ptr, %class.QString, ptr, %class.QString, %class.QString, i8, i8, %class.QString }

; Function Attrs: mustprogress nounwind uwtable
define linkonce_odr noundef zeroext i1 @_ZNK3vcg6Point3IfEeqERKS1_(ptr noundef nonnull align 4 dereferenceable(12) %0, ptr noundef nonnull align 4 dereferenceable(12) %1) #0 comdat align 2 {
  %3 = alloca ptr, align 8
  %4 = alloca ptr, align 8
  store ptr %0, ptr %3, align 8
  store ptr %1, ptr %4, align 8
  %5 = load ptr, ptr %3, align 8
  %6 = getelementptr inbounds %"class.vcg::Point3", ptr %5, i32 0, i32 0
  %7 = getelementptr inbounds [3 x float], ptr %6, i64 0, i64 0
  %8 = load float, ptr %7, align 4
  %9 = load ptr, ptr %4, align 8
  %10 = getelementptr inbounds %"class.vcg::Point3", ptr %9, i32 0, i32 0
  %11 = getelementptr inbounds [3 x float], ptr %10, i64 0, i64 0
  %12 = load float, ptr %11, align 4
  %13 = fcmp oeq float %8, %12
  br i1 %13, label %14, label %32

14:                                               ; preds = %2
  %15 = getelementptr inbounds %"class.vcg::Point3", ptr %5, i32 0, i32 0
  %16 = getelementptr inbounds [3 x float], ptr %15, i64 0, i64 1
  %17 = load float, ptr %16, align 4
  %18 = load ptr, ptr %4, align 8
  %19 = getelementptr inbounds %"class.vcg::Point3", ptr %18, i32 0, i32 0
  %20 = getelementptr inbounds [3 x float], ptr %19, i64 0, i64 1
  %21 = load float, ptr %20, align 4
  %22 = fcmp oeq float %17, %21
  br i1 %22, label %23, label %32

23:                                               ; preds = %14
  %24 = getelementptr inbounds %"class.vcg::Point3", ptr %5, i32 0, i32 0
  %25 = getelementptr inbounds [3 x float], ptr %24, i64 0, i64 2
  %26 = load float, ptr %25, align 4
  %27 = load ptr, ptr %4, align 8
  %28 = getelementptr inbounds %"class.vcg::Point3", ptr %27, i32 0, i32 0
  %29 = getelementptr inbounds [3 x float], ptr %28, i64 0, i64 2
  %30 = load float, ptr %29, align 4
  %31 = fcmp oeq float %26, %30
  br label %32

32:                                               ; preds = %23, %14, %2
  %33 = phi i1 [ false, %14 ], [ false, %2 ], [ %31, %23 ]
  ret i1 %33
}

; Function Attrs: mustprogress uwtable
define noundef zeroext i1 @_ZN13RichDirectioneqERK13RichParameter(ptr noundef nonnull align 8 dereferenceable(56) %0, ptr noundef nonnull align 8 dereferenceable(56) %1) unnamed_addr #3 align 2 {
  %3 = alloca ptr, align 8
  %4 = alloca ptr, align 8
  %5 = alloca %"class.vcg::Point3", align 4
  %6 = alloca { <2 x float>, float }, align 8
  %7 = alloca %"class.vcg::Point3", align 4
  %8 = alloca { <2 x float>, float }, align 8
  store ptr %0, ptr %3, align 8
  store ptr %1, ptr %4, align 8
  %9 = load ptr, ptr %3, align 8
  %10 = load ptr, ptr %4, align 8
  %11 = call noundef nonnull align 8 dereferenceable(8) ptr @_ZNK13RichParameter5valueEv(ptr noundef nonnull align 8 dereferenceable(56) %10)
  %12 = load ptr, ptr %11, align 8
  %13 = getelementptr inbounds ptr, ptr %12, i64 15
  %14 = load ptr, ptr %13, align 8
  %15 = call noundef zeroext i1 %14(ptr noundef nonnull align 8 dereferenceable(8) %11)
  br i1 %15, label %16, label %36

16:                                               ; preds = %2
  %17 = getelementptr inbounds %class.RichParameter, ptr %9, i32 0, i32 1
  %18 = load ptr, ptr %4, align 8
  %19 = call noundef nonnull align 8 dereferenceable(8) ptr @_ZNK13RichParameter4nameEv(ptr noundef nonnull align 8 dereferenceable(56) %18)
  %20 = call noundef zeroext i1 @_ZeqRK7QStringS1_(ptr noundef nonnull align 8 dereferenceable(8) %17, ptr noundef nonnull align 8 dereferenceable(8) %19) #6
  br i1 %20, label %21, label %36

21:                                               ; preds = %16
  %22 = call noundef nonnull align 8 dereferenceable(8) ptr @_ZNK13RichParameter5valueEv(ptr noundef nonnull align 8 dereferenceable(56) %9)
  %23 = load ptr, ptr %22, align 8
  %24 = getelementptr inbounds ptr, ptr %23, i64 7
  %25 = load ptr, ptr %24, align 8
  %26 = call { <2 x float>, float } %25(ptr noundef nonnull align 8 dereferenceable(8) %22)
  %27 = getelementptr inbounds %"class.vcg::Point3", ptr %5, i32 0, i32 0
  store { <2 x float>, float } %26, ptr %6, align 8
  call void @llvm.memcpy.p0.p0.i64(ptr align 4 %27, ptr align 8 %6, i64 12, i1 false)
  %28 = load ptr, ptr %4, align 8
  %29 = call noundef nonnull align 8 dereferenceable(8) ptr @_ZNK13RichParameter5valueEv(ptr noundef nonnull align 8 dereferenceable(56) %28)
  %30 = load ptr, ptr %29, align 8
  %31 = getelementptr inbounds ptr, ptr %30, i64 7
  %32 = load ptr, ptr %31, align 8
  %33 = call { <2 x float>, float } %32(ptr noundef nonnull align 8 dereferenceable(8) %29)
  %34 = getelementptr inbounds %"class.vcg::Point3", ptr %7, i32 0, i32 0
  store { <2 x float>, float } %33, ptr %8, align 8
  call void @llvm.memcpy.p0.p0.i64(ptr align 4 %34, ptr align 8 %8, i64 12, i1 false)
  %35 = call noundef zeroext i1 @_ZNK3vcg6Point3IfEeqERKS1_(ptr noundef nonnull align 4 dereferenceable(12) %5, ptr noundef nonnull align 4 dereferenceable(12) %7)
  br label %36

36:                                               ; preds = %21, %16, %2
  %37 = phi i1 [ false, %16 ], [ false, %2 ], [ %35, %21 ]
  ret i1 %37
}