; Function Attrs: mustprogress uwtable
define noundef zeroext i1 @_ZN13RichDirectioneqERK13RichParameter(ptr noundef nonnull align 8 dereferenceable(56) %0, ptr noundef nonnull align 8 dereferenceable(56) %1) unnamed_addr #3 align 2 {
  %3 = tail call noundef nonnull align 8 dereferenceable(8) ptr @_ZNK13RichParameter5valueEv(ptr noundef nonnull align 8 dereferenceable(56) %1)
  %4 = load ptr, ptr %3, align 8
  %5 = getelementptr inbounds i8, ptr %4, i64 120
  %6 = load ptr, ptr %5, align 8
  %7 = tail call noundef zeroext i1 %6(ptr noundef nonnull align 8 dereferenceable(8) %3)
  br i1 %7, label %8, label %_ZNK3vcg6Point3IfEeqERKS1_.exit

8:                                                ; preds = %2
  %9 = getelementptr inbounds i8, ptr %0, i64 8
  %10 = tail call noundef nonnull align 8 dereferenceable(8) ptr @_ZNK13RichParameter4nameEv(ptr noundef nonnull align 8 dereferenceable(56) %1)
  %11 = tail call noundef zeroext i1 @_ZeqRK7QStringS1_(ptr noundef nonnull align 8 dereferenceable(8) %9, ptr noundef nonnull align 8 dereferenceable(8) %10) #9
  br i1 %11, label %12, label %_ZNK3vcg6Point3IfEeqERKS1_.exit

12:                                               ; preds = %8
  %13 = tail call noundef nonnull align 8 dereferenceable(8) ptr @_ZNK13RichParameter5valueEv(ptr noundef nonnull align 8 dereferenceable(56) %0)
  %14 = load ptr, ptr %13, align 8
  %15 = getelementptr inbounds i8, ptr %14, i64 56
  %16 = load ptr, ptr %15, align 8
  %17 = tail call { <2 x float>, float } %16(ptr noundef nonnull align 8 dereferenceable(8) %13)
  %.fca.0.extract1 = extractvalue { <2 x float>, float } %17, 0
  %18 = tail call noundef nonnull align 8 dereferenceable(8) ptr @_ZNK13RichParameter5valueEv(ptr noundef nonnull align 8 dereferenceable(56) %1)
  %19 = load ptr, ptr %18, align 8
  %20 = getelementptr inbounds i8, ptr %19, i64 56
  %21 = load ptr, ptr %20, align 8
  %22 = tail call { <2 x float>, float } %21(ptr noundef nonnull align 8 dereferenceable(8) %18)
  %.fca.0.extract = extractvalue { <2 x float>, float } %22, 0
  %.sroa.08.0.vec.extract = extractelement <2 x float> %.fca.0.extract1, i64 0
  %.sroa.0.0.vec.extract = extractelement <2 x float> %.fca.0.extract, i64 0
  %23 = fcmp oeq float %.sroa.08.0.vec.extract, %.sroa.0.0.vec.extract
  %24 = fcmp oeq <2 x float> %.fca.0.extract1, %.fca.0.extract
  %25 = extractelement <2 x i1> %24, i64 1
  %or.cond = select i1 %23, i1 %25, i1 false
  br i1 %or.cond, label %26, label %_ZNK3vcg6Point3IfEeqERKS1_.exit

26:                                               ; preds = %12
  %.fca.1.extract = extractvalue { <2 x float>, float } %22, 1
  %.fca.1.extract2 = extractvalue { <2 x float>, float } %17, 1
  %27 = fcmp oeq float %.fca.1.extract2, %.fca.1.extract
  br label %_ZNK3vcg6Point3IfEeqERKS1_.exit

_ZNK3vcg6Point3IfEeqERKS1_.exit:                  ; preds = %26, %12, %8, %2
  %28 = phi i1 [ false, %8 ], [ false, %2 ], [ false, %12 ], [ %27, %26 ]
  ret i1 %28
}